; ModuleID = '27/1241.c'
source_filename = "27/1241.c"
target datalayout = "e-m:e-p270:32:32-p271:32:32-p272:64:64-i64:64-f80:128-n8:16:32:64-S128"
target triple = "x86_64-pc-linux-gnu"

@.str = private unnamed_addr constant [3 x i8] c"%d\00", align 1
@.str.1 = private unnamed_addr constant [10 x i8] c"%lf%lf%lf\00", align 1
@.str.2 = private unnamed_addr constant [19 x i8] c"x1=%.5lf;x2=%.5lf\0A\00", align 1
@.str.3 = private unnamed_addr constant [13 x i8] c"x1=x2=%.5lf\0A\00", align 1
@.str.4 = private unnamed_addr constant [32 x i8] c"x1=%.5lf+%.5lfi;x2=%.5f-%.5lfi\0A\00", align 1

; Function Attrs: noinline nounwind uwtable
define dso_local i32 @main() #0 {
  %1 = alloca i32, align 4
  %2 = alloca i32, align 4
  %3 = alloca i32, align 4
  %4 = alloca double, align 8
  %5 = alloca double, align 8
  %6 = alloca double, align 8
  %7 = alloca double, align 8
  %8 = alloca double, align 8
  store i32 0, i32* %1, align 4
  %9 = call i32 (i8*, ...) @__isoc99_scanf(i8* getelementptr inbounds ([3 x i8], [3 x i8]* @.str, i64 0, i64 0), i32* %2)
  store i32 1, i32* %3, align 4
  br label %10

10:                                               ; preds = %115, %0
  %11 = load i32, i32* %3, align 4
  %12 = load i32, i32* %2, align 4
  %13 = icmp sle i32 %11, %12
  br i1 %13, label %14, label %118

14:                                               ; preds = %10
  %15 = call i32 (i8*, ...) @__isoc99_scanf(i8* getelementptr inbounds ([10 x i8], [10 x i8]* @.str.1, i64 0, i64 0), double* %4, double* %5, double* %6)
  %16 = load double, double* %5, align 8
  %17 = load double, double* %5, align 8
  %18 = fmul double %16, %17
  %19 = load double, double* %4, align 8
  %20 = fmul double 4.000000e+00, %19
  %21 = load double, double* %6, align 8
  %22 = fmul double %20, %21
  %23 = fsub double %18, %22
  %24 = fcmp ogt double %23, 0.000000e+00
  br i1 %24, label %25, label %59

25:                                               ; preds = %14
  %26 = load double, double* %5, align 8
  %27 = fneg double %26
  %28 = load double, double* %5, align 8
  %29 = load double, double* %5, align 8
  %30 = fmul double %28, %29
  %31 = load double, double* %4, align 8
  %32 = fmul double 4.000000e+00, %31
  %33 = load double, double* %6, align 8
  %34 = fmul double %32, %33
  %35 = fsub double %30, %34
  %36 = call double @sqrt(double %35) #3
  %37 = fadd double %27, %36
  %38 = load double, double* %4, align 8
  %39 = fmul double 2.000000e+00, %38
  %40 = fdiv double %37, %39
  store double %40, double* %7, align 8
  %41 = load double, double* %5, align 8
  %42 = fneg double %41
  %43 = load double, double* %5, align 8
  %44 = load double, double* %5, align 8
  %45 = fmul double %43, %44
  %46 = load double, double* %4, align 8
  %47 = fmul double 4.000000e+00, %46
  %48 = load double, double* %6, align 8
  %49 = fmul double %47, %48
  %50 = fsub double %45, %49
  %51 = call double @sqrt(double %50) #3
  %52 = fsub double %42, %51
  %53 = load double, double* %4, align 8
  %54 = fmul double 2.000000e+00, %53
  %55 = fdiv double %52, %54
  store double %55, double* %8, align 8
  %56 = load double, double* %7, align 8
  %57 = load double, double* %8, align 8
  %58 = call i32 (i8*, ...) @printf(i8* getelementptr inbounds ([19 x i8], [19 x i8]* @.str.2, i64 0, i64 0), double %56, double %57)
  br label %114

59:                                               ; preds = %14
  %60 = load double, double* %5, align 8
  %61 = load double, double* %5, align 8
  %62 = fmul double %60, %61
  %63 = load double, double* %4, align 8
  %64 = fmul double 4.000000e+00, %63
  %65 = load double, double* %6, align 8
  %66 = fmul double %64, %65
  %67 = fsub double %62, %66
  %68 = fcmp oeq double %67, 0.000000e+00
  br i1 %68, label %69, label %77

69:                                               ; preds = %59
  %70 = load double, double* %5, align 8
  %71 = fneg double %70
  %72 = load double, double* %4, align 8
  %73 = fmul double 2.000000e+00, %72
  %74 = fdiv double %71, %73
  store double %74, double* %8, align 8
  store double %74, double* %7, align 8
  %75 = load double, double* %7, align 8
  %76 = call i32 (i8*, ...) @printf(i8* getelementptr inbounds ([13 x i8], [13 x i8]* @.str.3, i64 0, i64 0), double %75)
  br label %113

77:                                               ; preds = %59
  %78 = load double, double* %5, align 8
  %79 = fsub double 0.000000e+00, %78
  %80 = load double, double* %4, align 8
  %81 = fmul double 2.000000e+00, %80
  %82 = fdiv double %79, %81
  %83 = load double, double* %4, align 8
  %84 = fmul double 4.000000e+00, %83
  %85 = load double, double* %6, align 8
  %86 = fmul double %84, %85
  %87 = load double, double* %5, align 8
  %88 = load double, double* %5, align 8
  %89 = fmul double %87, %88
  %90 = fsub double %86, %89
  %91 = call double @sqrt(double %90) #3
  %92 = load double, double* %4, align 8
  %93 = fmul double 2.000000e+00, %92
  %94 = fdiv double %91, %93
  %95 = load double, double* %5, align 8
  %96 = fsub double 0.000000e+00, %95
  %97 = load double, double* %4, align 8
  %98 = fmul double 2.000000e+00, %97
  %99 = fdiv double %96, %98
  %100 = load double, double* %4, align 8
  %101 = fmul double 4.000000e+00, %100
  %102 = load double, double* %6, align 8
  %103 = fmul double %101, %102
  %104 = load double, double* %5, align 8
  %105 = load double, double* %5, align 8
  %106 = fmul double %104, %105
  %107 = fsub double %103, %106
  %108 = call double @sqrt(double %107) #3
  %109 = load double, double* %4, align 8
  %110 = fmul double 2.000000e+00, %109
  %111 = fdiv double %108, %110
  %112 = call i32 (i8*, ...) @printf(i8* getelementptr inbounds ([32 x i8], [32 x i8]* @.str.4, i64 0, i64 0), double %82, double %94, double %99, double %111)
  br label %113

113:                                              ; preds = %77, %69
  br label %114

114:                                              ; preds = %113, %25
  br label %115

115:                                              ; preds = %114
  %116 = load i32, i32* %3, align 4
  %117 = add nsw i32 %116, 1
  store i32 %117, i32* %3, align 4
  br label %10

118:                                              ; preds = %10
  ret i32 0
}

declare dso_local i32 @__isoc99_scanf(i8*, ...) #1

; Function Attrs: nounwind
declare dso_local double @sqrt(double) #2

declare dso_local i32 @printf(i8*, ...) #1


!llvm.module.flags = !{!0}
!llvm.ident = !{!1}

!0 = !{i32 1, !"wchar_size", i32 4}
!1 = !{!"clang version 10.0.0-4ubuntu1 "}
